; Function Attrs: mustprogress nounwind uwtable
define hidden noundef ptr @_ZNK25SafePointScalarObjectNode5cloneEP4DictRb(ptr noundef nonnull align 8 dereferenceable(88) %0, ptr noundef nonnull %1, ptr nocapture noundef nonnull writeonly align 1 dereferenceable(1) %2) local_unnamed_addr #2 align 2 {
  %4 = tail call noundef ptr @_ZNK4DictixEPKv(ptr noundef nonnull align 8 dereferenceable(40) %1, ptr noundef nonnull %0) #15
  %.not = icmp eq ptr %4, null
  br i1 %.not, label %6, label %5

5:                                                ; preds = %3
  store i8 0, ptr %2, align 1
  br label %9

6:                                                ; preds = %3
  store i8 1, ptr %2, align 1
  %7 = tail call noundef ptr @_ZNK4Node5cloneEv(ptr noundef nonnull align 8 dereferenceable(52) %0) #15
  %8 = tail call noundef ptr @_ZN4Dict6InsertEPvS0_b(ptr noundef nonnull align 8 dereferenceable(40) %1, ptr noundef nonnull %0, ptr noundef %7, i1 noundef zeroext true) #15
  br label %9

9:                                                ; preds = %6, %5
  %.0 = phi ptr [ %4, %5 ], [ %7, %6 ]
  ret ptr %.0
}